target datalayout = "e-m:e-p270:32:32-p271:32:32-p272:64:64-i64:64-i128:128-f80:128-n8:16:32:64-S128"
target triple = "x86_64-pc-linux-gnu"

%"class.icu_77::MaybeStackArray" = type <{ ptr, i32, i8, [40 x i8], [3 x i8] }>
%"class.icu_77::BytesTrie::Iterator" = type { ptr, ptr, ptr, i32, i32, ptr, i32, i32, ptr }
%"class.icu_77::CharString" = type { %"class.icu_77::MaybeStackArray", i32, [4 x i8] }

@_ZN6icu_7715MaybeStackArrayIcLi40EEC1Ev = weak_odr unnamed_addr alias void (ptr), ptr @_ZN6icu_7715MaybeStackArrayIcLi40EEC2Ev

; Function Attrs: mustprogress nounwind uwtable
define weak_odr noundef nonnull align 1 dereferenceable(1) ptr @_ZN6icu_7715MaybeStackArrayIcLi40EEixEl(ptr noundef nonnull align 8 dereferenceable(53) %0, i64 noundef %1) #0 comdat align 2 {
  %3 = alloca ptr, align 8
  %4 = alloca i64, align 8
  store ptr %0, ptr %3, align 8, !tbaa !3
  store i64 %1, ptr %4, align 8, !tbaa !18
  %5 = load ptr, ptr %3, align 8
  %6 = getelementptr inbounds nuw %"class.icu_77::MaybeStackArray", ptr %5, i32 0, i32 0
  %7 = load ptr, ptr %6, align 8, !tbaa !8
  %8 = load i64, ptr %4, align 8, !tbaa !18
  %9 = getelementptr inbounds i8, ptr %7, i64 %8
  ret ptr %9
}

; Function Attrs: inlinehint mustprogress nounwind uwtable
define internal noundef signext i8 @_ZL9U_SUCCESS10UErrorCode(i32 noundef %0) #2 {
  %2 = alloca i32, align 4
  store i32 %0, ptr %2, align 4, !tbaa !15
  %3 = load i32, ptr %2, align 4, !tbaa !15
  %4 = icmp sle i32 %3, 0
  %5 = zext i1 %4 to i8
  ret i8 %5
}

; Function Attrs: mustprogress uwtable
define linkonce_odr void @_ZN6icu_7710CharStringC2Ev(ptr noundef nonnull align 8 dereferenceable(60) %0) unnamed_addr #1 comdat align 2 {
  %2 = alloca ptr, align 8
  store ptr %0, ptr %2, align 8, !tbaa !37
  %3 = load ptr, ptr %2, align 8
  %4 = getelementptr inbounds nuw %"class.icu_77::CharString", ptr %3, i32 0, i32 0
  call void @_ZN6icu_7715MaybeStackArrayIcLi40EEC1Ev(ptr noundef nonnull align 8 dereferenceable(53) %4)
  %5 = getelementptr inbounds nuw %"class.icu_77::CharString", ptr %3, i32 0, i32 1
  store i32 0, ptr %5, align 8, !tbaa !38
  %6 = getelementptr inbounds nuw %"class.icu_77::CharString", ptr %3, i32 0, i32 0
  %7 = call noundef nonnull align 1 dereferenceable(1) ptr @_ZN6icu_7715MaybeStackArrayIcLi40EEixEl(ptr noundef nonnull align 8 dereferenceable(53) %6, i64 noundef 0)
  store i8 0, ptr %7, align 1, !tbaa !40
  ret void
}

; Function Attrs: inlinehint mustprogress nounwind uwtable
define internal noundef signext i8 @_ZL9U_FAILURE10UErrorCode(i32 noundef %0) #2 {
  %2 = alloca i32, align 4
  store i32 %0, ptr %2, align 4, !tbaa !15
  %3 = load i32, ptr %2, align 4, !tbaa !15
  %4 = icmp sgt i32 %3, 0
  %5 = zext i1 %4 to i8
  ret i8 %5
}

; Function Attrs: mustprogress uwtable
define void @_ZN6icu_779BytesTrie8IteratorC2EPKviR10UErrorCode(ptr noundef nonnull align 8 dereferenceable(56) %0, ptr noundef %1, i32 noundef %2, ptr noundef nonnull align 4 dereferenceable(4) %3) unnamed_addr #1 align 2 personality ptr @__gxx_personality_v0 {
  %5 = alloca ptr, align 8
  %6 = alloca ptr, align 8
  %7 = alloca i32, align 4
  %8 = alloca ptr, align 8
  %9 = alloca ptr, align 8
  %10 = alloca i1, align 1
  %11 = alloca ptr, align 8
  %12 = alloca i32, align 4
  %13 = alloca ptr, align 8
  %14 = alloca i1, align 1
  store ptr %0, ptr %5, align 8, !tbaa !23
  store ptr %1, ptr %6, align 8, !tbaa !22
  store i32 %2, ptr %7, align 4, !tbaa !14
  store ptr %3, ptr %8, align 8, !tbaa !22
  %15 = load ptr, ptr %5, align 8
  %16 = getelementptr inbounds nuw %"class.icu_77::BytesTrie::Iterator", ptr %15, i32 0, i32 0
  %17 = load ptr, ptr %6, align 8, !tbaa !22
  store ptr %17, ptr %16, align 8, !tbaa !25
  %18 = getelementptr inbounds nuw %"class.icu_77::BytesTrie::Iterator", ptr %15, i32 0, i32 1
  %19 = getelementptr inbounds nuw %"class.icu_77::BytesTrie::Iterator", ptr %15, i32 0, i32 0
  %20 = load ptr, ptr %19, align 8, !tbaa !25
  store ptr %20, ptr %18, align 8, !tbaa !29
  %21 = getelementptr inbounds nuw %"class.icu_77::BytesTrie::Iterator", ptr %15, i32 0, i32 2
  %22 = getelementptr inbounds nuw %"class.icu_77::BytesTrie::Iterator", ptr %15, i32 0, i32 0
  %23 = load ptr, ptr %22, align 8, !tbaa !25
  store ptr %23, ptr %21, align 8, !tbaa !30
  %24 = getelementptr inbounds nuw %"class.icu_77::BytesTrie::Iterator", ptr %15, i32 0, i32 3
  store i32 -1, ptr %24, align 8, !tbaa !31
  %25 = getelementptr inbounds nuw %"class.icu_77::BytesTrie::Iterator", ptr %15, i32 0, i32 4
  store i32 -1, ptr %25, align 4, !tbaa !32
  %26 = getelementptr inbounds nuw %"class.icu_77::BytesTrie::Iterator", ptr %15, i32 0, i32 5
  store ptr null, ptr %26, align 8, !tbaa !33
  %27 = getelementptr inbounds nuw %"class.icu_77::BytesTrie::Iterator", ptr %15, i32 0, i32 6
  %28 = load i32, ptr %7, align 4, !tbaa !14
  store i32 %28, ptr %27, align 8, !tbaa !34
  %29 = getelementptr inbounds nuw %"class.icu_77::BytesTrie::Iterator", ptr %15, i32 0, i32 7
  store i32 0, ptr %29, align 4, !tbaa !35
  %30 = getelementptr inbounds nuw %"class.icu_77::BytesTrie::Iterator", ptr %15, i32 0, i32 8
  store ptr null, ptr %30, align 8, !tbaa !36
  %31 = load ptr, ptr %8, align 8, !tbaa !22
  %32 = load i32, ptr %31, align 4, !tbaa !15
  %33 = call noundef signext i8 @_ZL9U_FAILURE10UErrorCode(i32 noundef %32)
  %34 = icmp ne i8 %33, 0
  br i1 %34, label %35, label %36

35:                                               ; preds = %4
  br label %82

36:                                               ; preds = %4
  %37 = call noundef ptr @_ZN6icu_777UMemorynwEm(i64 noundef 64) #10
  %38 = icmp eq ptr %37, null
  store i1 false, ptr %10, align 1
  br i1 %38, label %41, label %39

39:                                               ; preds = %36
  store ptr %37, ptr %9, align 8
  store i1 true, ptr %10, align 1
  invoke void @_ZN6icu_7710CharStringC2Ev(ptr noundef nonnull align 8 dereferenceable(60) %37)
          to label %40 unwind label %66

40:                                               ; preds = %39
  br label %41

41:                                               ; preds = %40, %36
  %42 = phi ptr [ %37, %40 ], [ null, %36 ]
  %43 = getelementptr inbounds nuw %"class.icu_77::BytesTrie::Iterator", ptr %15, i32 0, i32 5
  store ptr %42, ptr %43, align 8, !tbaa !33
  %44 = call noundef ptr @_ZN6icu_777UMemorynwEm(i64 noundef 32) #10
  %45 = icmp eq ptr %44, null
  store i1 false, ptr %14, align 1
  br i1 %45, label %49, label %46

46:                                               ; preds = %41
  store ptr %44, ptr %13, align 8
  store i1 true, ptr %14, align 1
  %47 = load ptr, ptr %8, align 8, !tbaa !22
  invoke void @_ZN6icu_779UVector32C1ER10UErrorCode(ptr noundef nonnull align 8 dereferenceable(32) %44, ptr noundef nonnull align 4 dereferenceable(4) %47)
          to label %48 unwind label %74

48:                                               ; preds = %46
  br label %49

49:                                               ; preds = %48, %41
  %50 = phi ptr [ %44, %48 ], [ null, %41 ]
  %51 = getelementptr inbounds nuw %"class.icu_77::BytesTrie::Iterator", ptr %15, i32 0, i32 8
  store ptr %50, ptr %51, align 8, !tbaa !36
  %52 = load ptr, ptr %8, align 8, !tbaa !22
  %53 = load i32, ptr %52, align 4, !tbaa !15
  %54 = call noundef signext i8 @_ZL9U_SUCCESS10UErrorCode(i32 noundef %53)
  %55 = icmp ne i8 %54, 0
  br i1 %55, label %56, label %82

56:                                               ; preds = %49
  %57 = getelementptr inbounds nuw %"class.icu_77::BytesTrie::Iterator", ptr %15, i32 0, i32 5
  %58 = load ptr, ptr %57, align 8, !tbaa !33
  %59 = icmp eq ptr %58, null
  br i1 %59, label %64, label %60

60:                                               ; preds = %56
  %61 = getelementptr inbounds nuw %"class.icu_77::BytesTrie::Iterator", ptr %15, i32 0, i32 8
  %62 = load ptr, ptr %61, align 8, !tbaa !36
  %63 = icmp eq ptr %62, null
  br i1 %63, label %64, label %82

64:                                               ; preds = %60, %56
  %65 = load ptr, ptr %8, align 8, !tbaa !22
  store i32 7, ptr %65, align 4, !tbaa !15
  br label %82

66:                                               ; preds = %39
  %67 = landingpad { ptr, i32 }
          cleanup
  %68 = extractvalue { ptr, i32 } %67, 0
  store ptr %68, ptr %11, align 8
  %69 = extractvalue { ptr, i32 } %67, 1
  store i32 %69, ptr %12, align 4
  %70 = load i1, ptr %10, align 1
  br i1 %70, label %71, label %73

71:                                               ; preds = %66
  %72 = load ptr, ptr %9, align 8
  call void @_ZN6icu_777UMemorydlEPv(ptr noundef %72) #10
  br label %73

73:                                               ; preds = %71, %66
  br label %83

74:                                               ; preds = %46
  %75 = landingpad { ptr, i32 }
          cleanup
  %76 = extractvalue { ptr, i32 } %75, 0
  store ptr %76, ptr %11, align 8
  %77 = extractvalue { ptr, i32 } %75, 1
  store i32 %77, ptr %12, align 4
  %78 = load i1, ptr %14, align 1
  br i1 %78, label %79, label %81

79:                                               ; preds = %74
  %80 = load ptr, ptr %13, align 8
  call void @_ZN6icu_777UMemorydlEPv(ptr noundef %80) #10
  br label %81

81:                                               ; preds = %79, %74
  br label %83

82:                                               ; preds = %35, %64, %60, %49
  ret void

83:                                               ; preds = %81, %73
  %84 = load ptr, ptr %11, align 8
  %85 = load i32, ptr %12, align 4
  %86 = insertvalue { ptr, i32 } poison, ptr %84, 0
  %87 = insertvalue { ptr, i32 } %86, i32 %85, 1
  resume { ptr, i32 } %87
}