; Function Attrs: mustprogress uwtable
define void @_ZN6icu_779BytesTrie8IteratorC2EPKviR10UErrorCode(ptr noundef nonnull align 8 captures(none) dereferenceable(56) initializes((0, 56)) %0, ptr noundef %1, i32 noundef %2, ptr noundef nonnull align 4 dereferenceable(4) %3) unnamed_addr #1 align 2 personality ptr @__gxx_personality_v0 {
  store ptr %1, ptr %0, align 8, !tbaa !15
  %5 = getelementptr inbounds nuw i8, ptr %0, i64 8
  store ptr %1, ptr %5, align 8, !tbaa !19
  %6 = getelementptr inbounds nuw i8, ptr %0, i64 16
  store ptr %1, ptr %6, align 8, !tbaa !20
  %7 = getelementptr inbounds nuw i8, ptr %0, i64 24
  store i32 -1, ptr %7, align 8, !tbaa !21
  %8 = getelementptr inbounds nuw i8, ptr %0, i64 28
  store i32 -1, ptr %8, align 4, !tbaa !22
  %9 = getelementptr inbounds nuw i8, ptr %0, i64 32
  store ptr null, ptr %9, align 8, !tbaa !23
  %10 = getelementptr inbounds nuw i8, ptr %0, i64 40
  store i32 %2, ptr %10, align 8, !tbaa !24
  %11 = getelementptr inbounds nuw i8, ptr %0, i64 44
  store i32 0, ptr %11, align 4, !tbaa !25
  %12 = getelementptr inbounds nuw i8, ptr %0, i64 48
  store ptr null, ptr %12, align 8, !tbaa !26
  %13 = load i32, ptr %3, align 4, !tbaa !13
  %14 = icmp slt i32 %13, 1
  br i1 %14, label %15, label %36

15:                                               ; preds = %4
  %16 = tail call noundef ptr @_ZN6icu_777UMemorynwEm(i64 noundef 64) #13
  %17 = icmp eq ptr %16, null
  br i1 %17, label %21, label %18

18:                                               ; preds = %15
  invoke void @_ZN6icu_7715MaybeStackArrayIcLi40EEC1Ev(ptr noundef nonnull align 8 dereferenceable(60) %16)
          to label %_ZN6icu_7710CharStringC2Ev.exit unwind label %32

_ZN6icu_7710CharStringC2Ev.exit:                  ; preds = %18
  %19 = getelementptr inbounds nuw i8, ptr %16, i64 56
  store i32 0, ptr %19, align 8, !tbaa !27
  %20 = load ptr, ptr %16, align 8, !tbaa !3
  store i8 0, ptr %20, align 1, !tbaa !29
  br label %21

21:                                               ; preds = %_ZN6icu_7710CharStringC2Ev.exit, %15
  store ptr %16, ptr %9, align 8, !tbaa !23
  %22 = tail call noundef ptr @_ZN6icu_777UMemorynwEm(i64 noundef 32) #13
  %23 = icmp eq ptr %22, null
  br i1 %23, label %25, label %24

24:                                               ; preds = %21
  invoke void @_ZN6icu_779UVector32C1ER10UErrorCode(ptr noundef nonnull align 8 dereferenceable(32) %22, ptr noundef nonnull align 4 dereferenceable(4) %3)
          to label %25 unwind label %34

25:                                               ; preds = %24, %21
  store ptr %22, ptr %12, align 8, !tbaa !26
  %26 = load i32, ptr %3, align 4, !tbaa !13
  %27 = icmp sgt i32 %26, 0
  br i1 %27, label %36, label %28

28:                                               ; preds = %25
  %29 = load ptr, ptr %9, align 8, !tbaa !23
  %30 = icmp eq ptr %29, null
  %or.cond = or i1 %23, %30
  br i1 %or.cond, label %31, label %36

31:                                               ; preds = %28
  store i32 7, ptr %3, align 4, !tbaa !13
  br label %36

32:                                               ; preds = %18
  %33 = landingpad { ptr, i32 }
          cleanup
  br label %37

34:                                               ; preds = %24
  %35 = landingpad { ptr, i32 }
          cleanup
  br label %37

36:                                               ; preds = %28, %4, %31, %25
  ret void

37:                                               ; preds = %34, %32
  %.sink = phi ptr [ %22, %34 ], [ %16, %32 ]
  %.pn = phi { ptr, i32 } [ %35, %34 ], [ %33, %32 ]
  tail call void @_ZN6icu_777UMemorydlEPv(ptr noundef nonnull %.sink) #13
  resume { ptr, i32 } %.pn
}